target datalayout = "e-m:e-p270:32:32-p271:32:32-p272:64:64-i64:64-i128:128-f80:128-n8:16:32:64-S128"
target triple = "x86_64-pc-linux-gnu"

%struct.sdshdr8 = type { i8, i8, i8, [0 x i8] }
%struct.sdshdr16 = type <{ i16, i16, i8, [0 x i8] }>
%struct.sdshdr32 = type <{ i32, i32, i8, [0 x i8] }>
%struct.sdshdr64 = type <{ i64, i64, i8, [0 x i8] }>
%struct.redisCommand = type { ptr, ptr, ptr, ptr, i32, ptr, ptr, i32, ptr, i32, ptr, i32, ptr, i32, i64, i64, ptr, i32, ptr, i32, ptr, ptr, i64, i64, i64, i64, i32, ptr, ptr, %struct.keySpec, ptr, ptr, ptr }
%struct.keySpec = type { ptr, i64, i32, %union.anon, i32, %union.anon.2 }
%union.anon = type { %struct.anon.1 }
%struct.anon.1 = type { ptr, i32 }
%union.anon.2 = type { %struct.anon.3 }
%struct.anon.3 = type { i32, i32, i32 }

; Function Attrs: inlinehint nounwind uwtable
define internal i64 @sdslen(ptr noundef %0) #11 {
  %2 = alloca i64, align 8
  %3 = alloca ptr, align 8
  %4 = alloca i8, align 1
  %5 = alloca i32, align 4
  store ptr %0, ptr %3, align 8, !tbaa !5
  call void @llvm.lifetime.start.p0(i64 1, ptr %4) #14
  %6 = load ptr, ptr %3, align 8, !tbaa !5
  %7 = getelementptr inbounds i8, ptr %6, i64 -1
  %8 = load i8, ptr %7, align 1, !tbaa !22
  store i8 %8, ptr %4, align 1, !tbaa !22
  %9 = load i8, ptr %4, align 1, !tbaa !22
  %10 = zext i8 %9 to i32
  %11 = and i32 %10, 7
  switch i32 %11, label %40 [
    i32 0, label %12
    i32 1, label %17
    i32 2, label %23
    i32 3, label %29
    i32 4, label %35
  ]

12:                                               ; preds = %1
  %13 = load i8, ptr %4, align 1, !tbaa !22
  %14 = zext i8 %13 to i32
  %15 = ashr i32 %14, 3
  %16 = sext i32 %15 to i64
  store i64 %16, ptr %2, align 8
  store i32 1, ptr %5, align 4
  br label %41

17:                                               ; preds = %1
  %18 = load ptr, ptr %3, align 8, !tbaa !5
  %19 = getelementptr inbounds i8, ptr %18, i64 -3
  %20 = getelementptr inbounds nuw %struct.sdshdr8, ptr %19, i32 0, i32 0
  %21 = load i8, ptr %20, align 1, !tbaa !22
  %22 = zext i8 %21 to i64
  store i64 %22, ptr %2, align 8
  store i32 1, ptr %5, align 4
  br label %41

23:                                               ; preds = %1
  %24 = load ptr, ptr %3, align 8, !tbaa !5
  %25 = getelementptr inbounds i8, ptr %24, i64 -5
  %26 = getelementptr inbounds nuw %struct.sdshdr16, ptr %25, i32 0, i32 0
  %27 = load i16, ptr %26, align 1, !tbaa !28
  %28 = zext i16 %27 to i64
  store i64 %28, ptr %2, align 8
  store i32 1, ptr %5, align 4
  br label %41

29:                                               ; preds = %1
  %30 = load ptr, ptr %3, align 8, !tbaa !5
  %31 = getelementptr inbounds i8, ptr %30, i64 -9
  %32 = getelementptr inbounds nuw %struct.sdshdr32, ptr %31, i32 0, i32 0
  %33 = load i32, ptr %32, align 1, !tbaa !17
  %34 = zext i32 %33 to i64
  store i64 %34, ptr %2, align 8
  store i32 1, ptr %5, align 4
  br label %41

35:                                               ; preds = %1
  %36 = load ptr, ptr %3, align 8, !tbaa !5
  %37 = getelementptr inbounds i8, ptr %36, i64 -17
  %38 = getelementptr inbounds nuw %struct.sdshdr64, ptr %37, i32 0, i32 0
  %39 = load i64, ptr %38, align 1, !tbaa !10
  store i64 %39, ptr %2, align 8
  store i32 1, ptr %5, align 4
  br label %41

40:                                               ; preds = %1
  store i64 0, ptr %2, align 8
  store i32 1, ptr %5, align 4
  br label %41

41:                                               ; preds = %40, %35, %29, %23, %17, %12
  call void @llvm.lifetime.end.p0(i64 1, ptr %4) #14
  %42 = load i64, ptr %2, align 8
  ret i64 %42
}

; Function Attrs: nounwind uwtable
define dso_local void @aclCatWithFlags(ptr noundef %0, ptr noundef %1, i64 noundef %2, ptr noundef %3) #0 {
  %5 = alloca ptr, align 8
  %6 = alloca ptr, align 8
  %7 = alloca i64, align 8
  %8 = alloca ptr, align 8
  %9 = alloca ptr, align 8
  %10 = alloca ptr, align 8
  %11 = alloca ptr, align 8
  store ptr %0, ptr %5, align 8, !tbaa !95
  store ptr %1, ptr %6, align 8, !tbaa !121
  store i64 %2, ptr %7, align 8, !tbaa !10
  store ptr %3, ptr %8, align 8, !tbaa !131
  call void @llvm.lifetime.start.p0(i64 8, ptr %9) #14
  call void @llvm.lifetime.start.p0(i64 8, ptr %10) #14
  %12 = load ptr, ptr %6, align 8, !tbaa !121
  %13 = call ptr @dictGetIterator(ptr noundef %12)
  store ptr %13, ptr %10, align 8, !tbaa !116
  br label %14

14:                                               ; preds = %51, %4
  %15 = load ptr, ptr %10, align 8, !tbaa !116
  %16 = call ptr @dictNext(ptr noundef %15)
  store ptr %16, ptr %9, align 8, !tbaa !118
  %17 = icmp ne ptr %16, null
  br i1 %17, label %18, label %52

18:                                               ; preds = %14
  call void @llvm.lifetime.start.p0(i64 8, ptr %11) #14
  %19 = load ptr, ptr %9, align 8, !tbaa !118
  %20 = call ptr @dictGetVal(ptr noundef %19)
  store ptr %20, ptr %11, align 8, !tbaa !108
  %21 = load ptr, ptr %11, align 8, !tbaa !108
  %22 = getelementptr inbounds nuw %struct.redisCommand, ptr %21, i32 0, i32 15
  %23 = load i64, ptr %22, align 8, !tbaa !122
  %24 = load i64, ptr %7, align 8, !tbaa !10
  %25 = and i64 %23, %24
  %26 = icmp ne i64 %25, 0
  br i1 %26, label %27, label %39

27:                                               ; preds = %18
  %28 = load ptr, ptr %5, align 8, !tbaa !95
  %29 = load ptr, ptr %11, align 8, !tbaa !108
  %30 = getelementptr inbounds nuw %struct.redisCommand, ptr %29, i32 0, i32 27
  %31 = load ptr, ptr %30, align 8, !tbaa !134
  %32 = load ptr, ptr %11, align 8, !tbaa !108
  %33 = getelementptr inbounds nuw %struct.redisCommand, ptr %32, i32 0, i32 27
  %34 = load ptr, ptr %33, align 8, !tbaa !134
  %35 = call i64 @sdslen(ptr noundef %34)
  call void @addReplyBulkCBuffer(ptr noundef %28, ptr noundef %31, i64 noundef %35)
  %36 = load ptr, ptr %8, align 8, !tbaa !131
  %37 = load i32, ptr %36, align 4, !tbaa !17
  %38 = add nsw i32 %37, 1
  store i32 %38, ptr %36, align 4, !tbaa !17
  br label %39

39:                                               ; preds = %27, %18
  %40 = load ptr, ptr %11, align 8, !tbaa !108
  %41 = getelementptr inbounds nuw %struct.redisCommand, ptr %40, i32 0, i32 30
  %42 = load ptr, ptr %41, align 8, !tbaa !115
  %43 = icmp ne ptr %42, null
  br i1 %43, label %44, label %51

44:                                               ; preds = %39
  %45 = load ptr, ptr %5, align 8, !tbaa !95
  %46 = load ptr, ptr %11, align 8, !tbaa !108
  %47 = getelementptr inbounds nuw %struct.redisCommand, ptr %46, i32 0, i32 30
  %48 = load ptr, ptr %47, align 8, !tbaa !115
  %49 = load i64, ptr %7, align 8, !tbaa !10
  %50 = load ptr, ptr %8, align 8, !tbaa !131
  call void @aclCatWithFlags(ptr noundef %45, ptr noundef %48, i64 noundef %49, ptr noundef %50)
  br label %51

51:                                               ; preds = %44, %39
  call void @llvm.lifetime.end.p0(i64 8, ptr %11) #14
  br label %14, !llvm.loop !235

52:                                               ; preds = %14
  %53 = load ptr, ptr %10, align 8, !tbaa !116
  call void @dictReleaseIterator(ptr noundef %53)
  call void @llvm.lifetime.end.p0(i64 8, ptr %10) #14
  call void @llvm.lifetime.end.p0(i64 8, ptr %9) #14
  ret void
}