; Function Attrs: nounwind uwtable
define dso_local void @aclCatWithFlags(ptr noundef %0, ptr noundef %1, i64 noundef %2, ptr noundef captures(none) %3) local_unnamed_addr #0 {
  %5 = tail call ptr @dictGetIterator(ptr noundef %1) #25
  %6 = tail call ptr @dictNext(ptr noundef %5) #25
  %.not17 = icmp eq ptr %6, null
  br i1 %.not17, label %._crit_edge, label %.lr.ph

.lr.ph:                                           ; preds = %4, %43
  %7 = phi ptr [ %44, %43 ], [ %6, %4 ]
  %8 = tail call ptr @dictGetVal(ptr noundef nonnull %7) #25
  %9 = getelementptr inbounds nuw i8, ptr %8, i64 120
  %10 = load i64, ptr %9, align 8, !tbaa !113
  %11 = and i64 %10, %2
  %.not15 = icmp eq i64 %11, 0
  br i1 %.not15, label %39, label %12

12:                                               ; preds = %.lr.ph
  %13 = getelementptr inbounds nuw i8, ptr %8, i64 216
  %14 = load ptr, ptr %13, align 8, !tbaa !126
  %15 = getelementptr inbounds i8, ptr %14, i64 -1
  %16 = load i8, ptr %15, align 1, !tbaa !19
  %17 = zext i8 %16 to i32
  %18 = and i32 %17, 7
  switch i32 %18, label %sdslen.exit [
    i32 0, label %19
    i32 1, label %22
    i32 2, label %26
    i32 3, label %30
    i32 4, label %34
  ]

19:                                               ; preds = %12
  %20 = lshr i32 %17, 3
  %21 = zext nneg i32 %20 to i64
  br label %sdslen.exit

22:                                               ; preds = %12
  %23 = getelementptr inbounds i8, ptr %14, i64 -3
  %24 = load i8, ptr %23, align 1, !tbaa !19
  %25 = zext i8 %24 to i64
  br label %sdslen.exit

26:                                               ; preds = %12
  %27 = getelementptr inbounds i8, ptr %14, i64 -5
  %28 = load i16, ptr %27, align 1, !tbaa !26
  %29 = zext i16 %28 to i64
  br label %sdslen.exit

30:                                               ; preds = %12
  %31 = getelementptr inbounds i8, ptr %14, i64 -9
  %32 = load i32, ptr %31, align 1, !tbaa !102
  %33 = zext i32 %32 to i64
  br label %sdslen.exit

34:                                               ; preds = %12
  %35 = getelementptr inbounds i8, ptr %14, i64 -17
  %36 = load i64, ptr %35, align 1, !tbaa !5
  br label %sdslen.exit

sdslen.exit:                                      ; preds = %12, %19, %22, %26, %30, %34
  %.0.i = phi i64 [ %36, %34 ], [ %33, %30 ], [ %29, %26 ], [ %25, %22 ], [ %21, %19 ], [ 0, %12 ]
  tail call void @addReplyBulkCBuffer(ptr noundef %0, ptr noundef nonnull %14, i64 noundef %.0.i) #25
  %37 = load i32, ptr %3, align 4, !tbaa !102
  %38 = add nsw i32 %37, 1
  store i32 %38, ptr %3, align 4, !tbaa !102
  br label %39

39:                                               ; preds = %sdslen.exit, %.lr.ph
  %40 = getelementptr inbounds nuw i8, ptr %8, i64 288
  %41 = load ptr, ptr %40, align 8, !tbaa !111
  %.not16 = icmp eq ptr %41, null
  br i1 %.not16, label %43, label %42

42:                                               ; preds = %39
  tail call void @aclCatWithFlags(ptr noundef %0, ptr noundef nonnull %41, i64 noundef %2, ptr noundef %3)
  br label %43

43:                                               ; preds = %42, %39
  %44 = tail call ptr @dictNext(ptr noundef %5) #25
  %.not = icmp eq ptr %44, null
  br i1 %.not, label %._crit_edge, label %.lr.ph, !llvm.loop !217

._crit_edge:                                      ; preds = %43, %4
  tail call void @dictReleaseIterator(ptr noundef %5) #25
  ret void
}